target datalayout = "e-m:e-p270:32:32-p271:32:32-p272:64:64-i64:64-i128:128-f80:128-n8:16:32:64-S128"
target triple = "x86_64-pc-linux-gnu"

%struct.Ver_Man_t_ = type { i32, i32, i32, ptr, ptr, i32, ptr, ptr, ptr, ptr, i32, i32, [2000 x i8], ptr, ptr, ptr, ptr }

; Function Attrs: nounwind uwtable
define i32 @Ver_ParseInsertsSuffix(ptr noundef %0, ptr noundef %1, i32 noundef %2, i32 noundef %3) #0 {
  %5 = alloca i32, align 4
  %6 = alloca ptr, align 8
  %7 = alloca ptr, align 8
  %8 = alloca i32, align 4
  %9 = alloca i32, align 4
  %10 = alloca i32, align 4
  %11 = alloca i32, align 4
  store ptr %0, ptr %6, align 8, !tbaa !12
  store ptr %1, ptr %7, align 8, !tbaa !3
  store i32 %2, ptr %8, align 4, !tbaa !10
  store i32 %3, ptr %9, align 4, !tbaa !10
  call void @llvm.lifetime.start.p0(i64 4, ptr %10) #10
  %12 = load ptr, ptr %6, align 8, !tbaa !12
  %13 = getelementptr inbounds nuw %struct.Ver_Man_t_, ptr %12, i32 0, i32 8
  %14 = load ptr, ptr %13, align 8, !tbaa !63
  %15 = icmp eq ptr %14, null
  br i1 %15, label %16, label %20

16:                                               ; preds = %4
  %17 = call ptr @st__init_table(ptr noundef @strcmp, ptr noundef @st__strhash)
  %18 = load ptr, ptr %6, align 8, !tbaa !12
  %19 = getelementptr inbounds nuw %struct.Ver_Man_t_, ptr %18, i32 0, i32 8
  store ptr %17, ptr %19, align 8, !tbaa !63
  br label %20

20:                                               ; preds = %16, %4
  %21 = load ptr, ptr %6, align 8, !tbaa !12
  %22 = getelementptr inbounds nuw %struct.Ver_Man_t_, ptr %21, i32 0, i32 8
  %23 = load ptr, ptr %22, align 8, !tbaa !63
  %24 = load ptr, ptr %7, align 8, !tbaa !3
  %25 = call i32 @st__lookup(ptr noundef %23, ptr noundef %24, ptr noundef null)
  %26 = icmp ne i32 %25, 0
  br i1 %26, label %27, label %28

27:                                               ; preds = %20
  store i32 1, ptr %5, align 4
  store i32 1, ptr %11, align 4
  br label %42

28:                                               ; preds = %20
  %29 = load i32, ptr %8, align 4, !tbaa !10
  %30 = shl i32 %29, 8
  %31 = load i32, ptr %9, align 4, !tbaa !10
  %32 = or i32 %30, %31
  store i32 %32, ptr %10, align 4, !tbaa !10
  %33 = load ptr, ptr %6, align 8, !tbaa !12
  %34 = getelementptr inbounds nuw %struct.Ver_Man_t_, ptr %33, i32 0, i32 8
  %35 = load ptr, ptr %34, align 8, !tbaa !63
  %36 = load ptr, ptr %7, align 8, !tbaa !3
  %37 = call ptr @Extra_UtilStrsav(ptr noundef %36)
  %38 = load i32, ptr %10, align 4, !tbaa !10
  %39 = zext i32 %38 to i64
  %40 = inttoptr i64 %39 to ptr
  %41 = call i32 @st__insert(ptr noundef %35, ptr noundef %37, ptr noundef %40)
  store i32 1, ptr %5, align 4
  store i32 1, ptr %11, align 4
  br label %42

42:                                               ; preds = %28, %27
  call void @llvm.lifetime.end.p0(i64 4, ptr %10) #10
  %43 = load i32, ptr %5, align 4
  ret i32 %43
}