; Function Attrs: nounwind uwtable
define noundef i32 @Ver_ParseInsertsSuffix(ptr noundef captures(none) %0, ptr noundef %1, i32 noundef %2, i32 noundef %3) local_unnamed_addr #0 {
  %5 = getelementptr inbounds nuw i8, ptr %0, i64 56
  %6 = load ptr, ptr %5, align 8, !tbaa !91
  %7 = icmp eq ptr %6, null
  br i1 %7, label %8, label %10

8:                                                ; preds = %4
  %9 = tail call ptr @st__init_table(ptr noundef nonnull @strcmp, ptr noundef nonnull @st__strhash) #20
  store ptr %9, ptr %5, align 8, !tbaa !91
  br label %10

10:                                               ; preds = %8, %4
  %11 = phi ptr [ %9, %8 ], [ %6, %4 ]
  %12 = tail call i32 @st__lookup(ptr noundef %11, ptr noundef %1, ptr noundef null) #20
  %.not = icmp eq i32 %12, 0
  br i1 %.not, label %13, label %21

13:                                               ; preds = %10
  %14 = shl i32 %2, 8
  %15 = or i32 %14, %3
  %16 = load ptr, ptr %5, align 8, !tbaa !91
  %17 = tail call ptr @Extra_UtilStrsav(ptr noundef %1) #20
  %18 = zext i32 %15 to i64
  %19 = inttoptr i64 %18 to ptr
  %20 = tail call i32 @st__insert(ptr noundef %16, ptr noundef %17, ptr noundef %19) #20
  br label %21

21:                                               ; preds = %10, %13
  ret i32 1
}